; ModuleID = '43/673.c'
source_filename = "43/673.c"
target datalayout = "e-m:e-p270:32:32-p271:32:32-p272:64:64-i64:64-f80:128-n8:16:32:64-S128"
target triple = "x86_64-pc-linux-gnu"

@.str = private unnamed_addr constant [3 x i8] c"%d\00", align 1
@.str.1 = private unnamed_addr constant [7 x i8] c"%d %d\0A\00", align 1

; Function Attrs: noinline nounwind uwtable
define dso_local i32 @main() #0 {
  %1 = alloca i32, align 4
  %2 = alloca i32, align 4
  %3 = alloca i32, align 4
  %4 = alloca i32, align 4
  %5 = alloca i32, align 4
  %6 = alloca i32, align 4
  %7 = alloca i32, align 4
  %8 = alloca i32, align 4
  store i32 0, i32* %1, align 4
  %9 = call i32 (i8*, ...) @__isoc99_scanf(i8* getelementptr inbounds ([3 x i8], [3 x i8]* @.str, i64 0, i64 0), i32* %2)
  store i32 3, i32* %3, align 4
  br label %10

10:                                               ; preds = %68, %0
  %11 = load i32, i32* %3, align 4
  %12 = load i32, i32* %2, align 4
  %13 = sdiv i32 %12, 2
  %14 = icmp sle i32 %11, %13
  br i1 %14, label %15, label %71

15:                                               ; preds = %10
  store i32 3, i32* %5, align 4
  store i32 0, i32* %7, align 4
  br label %16

16:                                               ; preds = %33, %15
  %17 = load i32, i32* %5, align 4
  %18 = load i32, i32* %3, align 4
  %19 = add nsw i32 %18, 1
  %20 = sdiv i32 %19, 2
  %21 = icmp sle i32 %17, %20
  br i1 %21, label %22, label %34

22:                                               ; preds = %16
  %23 = load i32, i32* %3, align 4
  %24 = load i32, i32* %5, align 4
  %25 = srem i32 %23, %24
  %26 = icmp eq i32 %25, 0
  br i1 %26, label %27, label %30

27:                                               ; preds = %22
  %28 = load i32, i32* %7, align 4
  %29 = add nsw i32 %28, 1
  store i32 %29, i32* %7, align 4
  br label %34

30:                                               ; preds = %22
  %31 = load i32, i32* %5, align 4
  %32 = add nsw i32 %31, 2
  store i32 %32, i32* %5, align 4
  br label %33

33:                                               ; preds = %30
  br label %16

34:                                               ; preds = %27, %16
  %35 = load i32, i32* %7, align 4
  %36 = icmp ne i32 %35, 0
  br i1 %36, label %37, label %38

37:                                               ; preds = %34
  br label %68

38:                                               ; preds = %34
  %39 = load i32, i32* %2, align 4
  %40 = load i32, i32* %3, align 4
  %41 = sub nsw i32 %39, %40
  store i32 %41, i32* %4, align 4
  store i32 3, i32* %6, align 4
  store i32 0, i32* %8, align 4
  br label %42

42:                                               ; preds = %58, %38
  %43 = load i32, i32* %6, align 4
  %44 = load i32, i32* %4, align 4
  %45 = sdiv i32 %44, 2
  %46 = icmp sle i32 %43, %45
  br i1 %46, label %47, label %59

47:                                               ; preds = %42
  %48 = load i32, i32* %4, align 4
  %49 = load i32, i32* %6, align 4
  %50 = srem i32 %48, %49
  %51 = icmp eq i32 %50, 0
  br i1 %51, label %52, label %55

52:                                               ; preds = %47
  %53 = load i32, i32* %8, align 4
  %54 = add nsw i32 %53, 1
  store i32 %54, i32* %8, align 4
  br label %59

55:                                               ; preds = %47
  %56 = load i32, i32* %6, align 4
  %57 = add nsw i32 %56, 2
  store i32 %57, i32* %6, align 4
  br label %58

58:                                               ; preds = %55
  br label %42

59:                                               ; preds = %52, %42
  %60 = load i32, i32* %8, align 4
  %61 = icmp eq i32 %60, 0
  br i1 %61, label %62, label %66

62:                                               ; preds = %59
  %63 = load i32, i32* %3, align 4
  %64 = load i32, i32* %4, align 4
  %65 = call i32 (i8*, ...) @printf(i8* getelementptr inbounds ([7 x i8], [7 x i8]* @.str.1, i64 0, i64 0), i32 %63, i32 %64)
  br label %66

66:                                               ; preds = %62, %59
  br label %67

67:                                               ; preds = %66
  br label %68

68:                                               ; preds = %67, %37
  %69 = load i32, i32* %3, align 4
  %70 = add nsw i32 %69, 2
  store i32 %70, i32* %3, align 4
  br label %10

71:                                               ; preds = %10
  %72 = load i32, i32* %1, align 4
  ret i32 %72
}

declare dso_local i32 @__isoc99_scanf(i8*, ...) #1

declare dso_local i32 @printf(i8*, ...) #1


!llvm.module.flags = !{!0}
!llvm.ident = !{!1}

!0 = !{i32 1, !"wchar_size", i32 4}
!1 = !{!"clang version 10.0.0-4ubuntu1 "}
